target datalayout = "e-m:e-p270:32:32-p271:32:32-p272:64:64-i64:64-i128:128-f80:128-n8:16:32:64-S128"
target triple = "x86_64-pc-linux-gnu"

%"class.sat::asymm_branch" = type { ptr, %class.params_ref, i64, %class.random_gen, i32, i32, i8, i32, i32, i8, i8, i64, i32, i32, i32, %class.svector, %class.svector, %class.svector.0, %class.svector.0, %class.svector, %class.svector }
%class.params_ref = type { ptr }
%class.random_gen = type { i32 }
%class.svector.0 = type { %class.vector.1 }
%class.vector.1 = type { ptr }
%class.svector = type { %class.vector }
%class.vector = type { ptr }

; Function Attrs: mustprogress uwtable
define hidden void @_ZN3sat12asymm_branch11process_binERNS_3bigE(ptr noundef nonnull align 8 dereferenceable(128) %0, ptr noundef nonnull align 8 dereferenceable(80) %1) #4 align 2 {
  %3 = alloca ptr, align 8
  %4 = alloca ptr, align 8
  store ptr %0, ptr %3, align 8, !tbaa !3
  store ptr %1, ptr %4, align 8, !tbaa !49
  %5 = load ptr, ptr %3, align 8
  %6 = load ptr, ptr %4, align 8, !tbaa !49
  %7 = getelementptr inbounds nuw %"class.sat::asymm_branch", ptr %5, i32 0, i32 0
  %8 = load ptr, ptr %7, align 8, !tbaa !51
  %9 = call noundef i32 @_ZN3sat3big9reduce_trERNS_6solverE(ptr noundef nonnull align 8 dereferenceable(80) %6, ptr noundef nonnull align 8 dereferenceable(4264) %8)
  %10 = getelementptr inbounds nuw %"class.sat::asymm_branch", ptr %5, i32 0, i32 14
  %11 = load i32, ptr %10, align 8, !tbaa !44
  %12 = add i32 %11, %9
  store i32 %12, ptr %10, align 8, !tbaa !44
  ret void
}