; Function Attrs: mustprogress uwtable
define hidden void @_ZN3sat12asymm_branch11process_binERNS_3bigE(ptr noundef nonnull align 8 captures(none) dereferenceable(128) %0, ptr noundef nonnull align 8 dereferenceable(80) %1) local_unnamed_addr #3 align 2 {
  %3 = load ptr, ptr %0, align 8, !tbaa !40
  %4 = tail call noundef i32 @_ZN3sat3big9reduce_trERNS_6solverE(ptr noundef nonnull align 8 dereferenceable(80) %1, ptr noundef nonnull align 8 dereferenceable(4264) %3)
  %5 = getelementptr inbounds nuw i8, ptr %0, i64 72
  %6 = load i32, ptr %5, align 8, !tbaa !25
  %7 = add i32 %6, %4
  store i32 %7, ptr %5, align 8, !tbaa !25
  ret void
}